target datalayout = "e-m:e-p270:32:32-p271:32:32-p272:64:64-i64:64-i128:128-f80:128-n8:16:32:64-S128"
target triple = "x86_64-pc-linux-gnu"

%"struct.faiss::VectorDistance.2" = type { i64, float }
%"struct.faiss::FlatCodesDistanceComputer" = type { %"struct.faiss::DistanceComputer", ptr, i64 }
%"struct.faiss::DistanceComputer" = type { ptr }
%"struct.faiss::(anonymous namespace)::ExtraDistanceComputer.10" = type { %"struct.faiss::FlatCodesDistanceComputer", %"struct.faiss::VectorDistance.2", i64, ptr, ptr }

; Function Attrs: mustprogress nounwind uwtable
define linkonce_odr noundef float @_ZNK5faiss14VectorDistanceILNS_10MetricTypeE20EEclEPKfS4_(ptr noundef nonnull align 8 dereferenceable(16) %0, ptr noundef %1, ptr noundef %2) #4 comdat align 2 {
  %4 = alloca ptr, align 8
  %5 = alloca ptr, align 8
  %6 = alloca ptr, align 8
  %7 = alloca float, align 4
  %8 = alloca i64, align 8
  %9 = alloca float, align 4
  %10 = alloca float, align 4
  store ptr %0, ptr %4, align 8
  store ptr %1, ptr %5, align 8
  store ptr %2, ptr %6, align 8
  %11 = load ptr, ptr %4, align 8
  store float 0.000000e+00, ptr %7, align 4
  store i64 0, ptr %8, align 8
  br label %12

12:                                               ; preds = %43, %3
  %13 = load i64, ptr %8, align 8
  %14 = getelementptr inbounds %"struct.faiss::VectorDistance.2", ptr %11, i32 0, i32 0
  %15 = load i64, ptr %14, align 8
  %16 = icmp ult i64 %13, %15
  br i1 %16, label %17, label %46

17:                                               ; preds = %12
  %18 = load ptr, ptr %5, align 8
  %19 = load i64, ptr %8, align 8
  %20 = getelementptr inbounds float, ptr %18, i64 %19
  %21 = load float, ptr %20, align 4
  store float %21, ptr %9, align 4
  %22 = load ptr, ptr %6, align 8
  %23 = load i64, ptr %8, align 8
  %24 = getelementptr inbounds float, ptr %22, i64 %23
  %25 = load float, ptr %24, align 4
  store float %25, ptr %10, align 4
  %26 = load float, ptr %9, align 4
  %27 = load float, ptr %10, align 4
  %28 = fsub float %26, %27
  %29 = fpext float %28 to double
  %30 = call double @llvm.fabs.f64(double %29)
  %31 = load float, ptr %9, align 4
  %32 = fpext float %31 to double
  %33 = call double @llvm.fabs.f64(double %32)
  %34 = load float, ptr %10, align 4
  %35 = fpext float %34 to double
  %36 = call double @llvm.fabs.f64(double %35)
  %37 = fadd double %33, %36
  %38 = fdiv double %30, %37
  %39 = load float, ptr %7, align 4
  %40 = fpext float %39 to double
  %41 = fadd double %40, %38
  %42 = fptrunc double %41 to float
  store float %42, ptr %7, align 4
  br label %43

43:                                               ; preds = %17
  %44 = load i64, ptr %8, align 8
  %45 = add i64 %44, 1
  store i64 %45, ptr %8, align 8
  br label %12, !llvm.loop !28

46:                                               ; preds = %12
  %47 = load float, ptr %7, align 4
  ret float %47
}

; Function Attrs: mustprogress nounwind uwtable
define internal noundef float @_ZN5faiss12_GLOBAL__N_121ExtraDistanceComputerINS_14VectorDistanceILNS_10MetricTypeE20EEEE16distance_to_codeEPKh(ptr noundef nonnull align 8 dereferenceable(64) %0, ptr noundef %1) unnamed_addr #4 align 2 {
  %3 = alloca ptr, align 8
  %4 = alloca ptr, align 8
  store ptr %0, ptr %3, align 8
  store ptr %1, ptr %4, align 8
  %5 = load ptr, ptr %3, align 8
  %6 = getelementptr inbounds %"struct.faiss::(anonymous namespace)::ExtraDistanceComputer.10", ptr %5, i32 0, i32 1
  %7 = getelementptr inbounds %"struct.faiss::(anonymous namespace)::ExtraDistanceComputer.10", ptr %5, i32 0, i32 3
  %8 = load ptr, ptr %7, align 8
  %9 = load ptr, ptr %4, align 8
  %10 = call noundef float @_ZNK5faiss14VectorDistanceILNS_10MetricTypeE20EEclEPKfS4_(ptr noundef nonnull align 8 dereferenceable(16) %6, ptr noundef %8, ptr noundef %9)
  ret float %10
}