; Function Attrs: mustprogress nofree norecurse nosync nounwind willreturn memory(read, inaccessiblemem: none) uwtable
define internal noundef float @_ZN5faiss12_GLOBAL__N_121ExtraDistanceComputerINS_14VectorDistanceILNS_10MetricTypeE20EEEE16distance_to_codeEPKh(ptr nocapture noundef nonnull readonly align 8 dereferenceable(64) %0, ptr nocapture noundef readonly %1) unnamed_addr #17 align 2 {
  %3 = getelementptr inbounds i8, ptr %0, i64 24
  %4 = getelementptr inbounds i8, ptr %0, i64 48
  %5 = load ptr, ptr %4, align 8
  %6 = load i64, ptr %3, align 8
  %.not.i = icmp eq i64 %6, 0
  br i1 %.not.i, label %_ZNK5faiss14VectorDistanceILNS_10MetricTypeE20EEclEPKfS4_.exit, label %.lr.ph.i

.lr.ph.i:                                         ; preds = %2, %.lr.ph.i
  %.014.i = phi float [ %23, %.lr.ph.i ], [ 0.000000e+00, %2 ]
  %.01213.i = phi i64 [ %24, %.lr.ph.i ], [ 0, %2 ]
  %7 = getelementptr inbounds float, ptr %5, i64 %.01213.i
  %8 = load float, ptr %7, align 4
  %9 = getelementptr inbounds float, ptr %1, i64 %.01213.i
  %10 = load float, ptr %9, align 4
  %11 = fsub float %8, %10
  %12 = tail call float @llvm.fabs.f32(float %11)
  %13 = fpext float %12 to double
  %14 = insertelement <2 x float> poison, float %8, i64 0
  %15 = insertelement <2 x float> %14, float %10, i64 1
  %16 = tail call <2 x float> @llvm.fabs.v2f32(<2 x float> %15)
  %17 = fpext <2 x float> %16 to <2 x double>
  %shift = shufflevector <2 x double> %17, <2 x double> poison, <2 x i32> <i32 1, i32 poison>
  %18 = fadd <2 x double> %shift, %17
  %19 = extractelement <2 x double> %18, i64 0
  %20 = fdiv double %13, %19
  %21 = fpext float %.014.i to double
  %22 = fadd double %20, %21
  %23 = fptrunc double %22 to float
  %24 = add nuw i64 %.01213.i, 1
  %exitcond.not.i = icmp eq i64 %24, %6
  br i1 %exitcond.not.i, label %_ZNK5faiss14VectorDistanceILNS_10MetricTypeE20EEclEPKfS4_.exit, label %.lr.ph.i, !llvm.loop !24

_ZNK5faiss14VectorDistanceILNS_10MetricTypeE20EEclEPKfS4_.exit: ; preds = %.lr.ph.i, %2
  %.0.lcssa.i = phi float [ 0.000000e+00, %2 ], [ %23, %.lr.ph.i ]
  ret float %.0.lcssa.i
}